; Function Attrs: null_pointer_is_valid sspstrong uwtable
define internal void @dissect_gtpv2_mbms_session_id(ptr noundef %0, ptr readnone captures(none) %1, ptr noundef %2, ptr readnone captures(none) %3, i16 noundef zeroext %4, i8 zeroext %5, i8 zeroext %6, ptr readnone captures(none) %7) #1 {
  %9 = load i32, ptr @hf_gtpv2_mbms_session_id, align 4
  %10 = tail call ptr @proto_tree_add_item(ptr noundef %2, i32 noundef %9, ptr noundef %0, i32 noundef 0, i32 noundef 1, i32 noundef 0)
  %11 = icmp ugt i16 %4, 1
  br i1 %11, label %12, label %17

12:                                               ; preds = %8
  %13 = zext i16 %4 to i32
  %14 = load i32, ptr @hf_gtpv2_spare_bytes, align 4
  %15 = add nsw i32 %13, -1
  %16 = tail call ptr @proto_tree_add_item(ptr noundef %2, i32 noundef %14, ptr noundef %0, i32 noundef 1, i32 noundef %15, i32 noundef 0)
  br label %17

17:                                               ; preds = %12, %8
  ret void
}